; Function Attrs: mustprogress nofree norecurse nosync nounwind willreturn memory(argmem: read) uwtable
define hidden i32 @VP8LPredictor10_C(ptr noundef readonly captures(none) %0, ptr noundef readonly captures(none) %1) #0 {
  %3 = load i32, ptr %0, align 4, !tbaa !3
  %4 = getelementptr inbounds i8, ptr %1, i64 -4
  %5 = load i32, ptr %4, align 4, !tbaa !3
  %6 = load i32, ptr %1, align 4, !tbaa !3
  %7 = getelementptr inbounds nuw i8, ptr %1, i64 4
  %8 = load i32, ptr %7, align 4, !tbaa !3
  %9 = xor i32 %5, %3
  %10 = lshr i32 %9, 1
  %11 = and i32 %10, 2139062143
  %12 = and i32 %5, %3
  %13 = add i32 %11, %12
  %14 = xor i32 %8, %6
  %15 = lshr i32 %14, 1
  %16 = and i32 %15, 2139062143
  %17 = and i32 %8, %6
  %18 = add i32 %16, %17
  %19 = xor i32 %18, %13
  %20 = lshr i32 %19, 1
  %21 = and i32 %20, 2139062143
  %22 = and i32 %18, %13
  %23 = add i32 %21, %22
  ret i32 %23
}